target datalayout = "e-m:e-p270:32:32-p271:32:32-p272:64:64-i64:64-i128:128-f80:128-n8:16:32:64-S128"
target triple = "x86_64-pc-linux-gnu"

%"class.Json::Value" = type { %"union.Json::Value::ValueHolder", %struct.anon, %"class.Json::Value::Comments", i64, i64 }
%"union.Json::Value::ValueHolder" = type { i64 }
%struct.anon = type { i16, [2 x i8] }
%"class.Json::Value::Comments" = type { %"class.std::unique_ptr" }
%"class.std::unique_ptr" = type { %"struct.std::__uniq_ptr_data" }
%"struct.std::__uniq_ptr_data" = type { %"class.std::__uniq_ptr_impl" }
%"class.std::__uniq_ptr_impl" = type { %"class.std::tuple" }
%"class.std::tuple" = type { %"struct.std::_Tuple_impl" }
%"struct.std::_Tuple_impl" = type { %"struct.std::_Head_base.12" }
%"struct.std::_Head_base.12" = type { ptr }
%"class.open3d::camera::PinholeCameraIntrinsic" = type { %"class.open3d::utility::IJsonConvertible", i32, i32, %"class.Eigen::Matrix" }
%"class.open3d::utility::IJsonConvertible" = type { ptr }
%"class.Eigen::Matrix" = type { %"class.Eigen::PlainObjectBase" }
%"class.Eigen::PlainObjectBase" = type { %"class.Eigen::DenseStorage" }
%"class.Eigen::DenseStorage" = type { %"struct.Eigen::internal::plain_array" }
%"struct.Eigen::internal::plain_array" = type { [9 x double] }

@.str = private unnamed_addr constant [6 x i8] c"width\00", align 1
@.str.3 = private unnamed_addr constant [7 x i8] c"height\00", align 1
@.str.4 = private unnamed_addr constant [17 x i8] c"intrinsic_matrix\00", align 1
@.str.5 = private unnamed_addr constant [136 x i8] c"generated/home/dtcxzyw/WorkSpace/Projects/compilers/llvm-opt-benchmark/bench/open3d/Open3D/cpp/open3d/camera/PinholeCameraIntrinsic.cpp\00", align 1
@__PRETTY_FUNCTION__._ZN6open3d6camera22PinholeCameraIntrinsic20ConvertFromJsonValueERKN4Json5ValueE = private unnamed_addr constant [95 x i8] c"virtual bool open3d::camera::PinholeCameraIntrinsic::ConvertFromJsonValue(const Json::Value &)\00", align 1
@.str.6 = private unnamed_addr constant [67 x i8] c"PinholeCameraParameters read JSON failed: unsupported json format.\00", align 1
@.str.7 = private unnamed_addr constant [56 x i8] c"PinholeCameraParameters read JSON failed: wrong format.\00", align 1

; Function Attrs: mustprogress ssp uwtable
define noundef zeroext i1 @_ZN6open3d6camera22PinholeCameraIntrinsic20ConvertFromJsonValueERKN4Json5ValueE(ptr noundef nonnull align 8 dereferenceable(88) %0, ptr noundef nonnull align 8 dereferenceable(40) %1) unnamed_addr #1 align 2 personality ptr @__gxx_personality_v0 {
  %3 = alloca i1, align 1
  %4 = alloca ptr, align 8
  %5 = alloca ptr, align 8
  %6 = alloca %"class.Json::Value", align 8
  %7 = alloca %"class.Json::Value", align 8
  %8 = alloca ptr, align 8
  %9 = alloca i32, align 4
  %10 = alloca %"class.Json::Value", align 8
  %11 = alloca %"class.Json::Value", align 8
  store ptr %0, ptr %4, align 8, !tbaa !4
  store ptr %1, ptr %5, align 8, !tbaa !9
  %12 = load ptr, ptr %4, align 8
  %13 = load ptr, ptr %5, align 8, !tbaa !9
  %14 = call noundef zeroext i1 @_ZNK4Json5Value8isObjectEv(ptr noundef nonnull align 8 dereferenceable(40) %13)
  br i1 %14, label %16, label %15

15:                                               ; preds = %2
  call void @_ZN6open3d7utility6Logger11LogWarning_IJEEEvPKciS4_S4_DpOT_(ptr noundef @.str.5, i32 noundef 59, ptr noundef @__PRETTY_FUNCTION__._ZN6open3d6camera22PinholeCameraIntrinsic20ConvertFromJsonValueERKN4Json5ValueE, ptr noundef @.str.6)
  store i1 false, ptr %3, align 1
  br label %51

16:                                               ; preds = %2
  call void @llvm.lifetime.start.p0(i64 40, ptr %6) #14
  %17 = load ptr, ptr %5, align 8, !tbaa !9
  call void @llvm.lifetime.start.p0(i64 40, ptr %7) #14
  call void @_ZN4Json5ValueC1Ei(ptr noundef nonnull align 8 dereferenceable(40) %7, i32 noundef -1)
  invoke void @_ZNK4Json5Value3getEPKcRKS0_(ptr dead_on_unwind writable sret(%"class.Json::Value") align 8 %6, ptr noundef nonnull align 8 dereferenceable(40) %17, ptr noundef @.str, ptr noundef nonnull align 8 dereferenceable(40) %7)
          to label %18 unwind label %32

18:                                               ; preds = %16
  %19 = invoke noundef i32 @_ZNK4Json5Value5asIntEv(ptr noundef nonnull align 8 dereferenceable(40) %6)
          to label %20 unwind label %36

20:                                               ; preds = %18
  %21 = getelementptr inbounds nuw %"class.open3d::camera::PinholeCameraIntrinsic", ptr %12, i32 0, i32 1
  store i32 %19, ptr %21, align 8, !tbaa !11
  call void @_ZN4Json5ValueD1Ev(ptr noundef nonnull align 8 dereferenceable(40) %6) #14
  call void @_ZN4Json5ValueD1Ev(ptr noundef nonnull align 8 dereferenceable(40) %7) #14
  call void @llvm.lifetime.end.p0(i64 40, ptr %7) #14
  call void @llvm.lifetime.end.p0(i64 40, ptr %6) #14
  call void @llvm.lifetime.start.p0(i64 40, ptr %10) #14
  %22 = load ptr, ptr %5, align 8, !tbaa !9
  call void @llvm.lifetime.start.p0(i64 40, ptr %11) #14
  call void @_ZN4Json5ValueC1Ei(ptr noundef nonnull align 8 dereferenceable(40) %11, i32 noundef -1)
  invoke void @_ZNK4Json5Value3getEPKcRKS0_(ptr dead_on_unwind writable sret(%"class.Json::Value") align 8 %10, ptr noundef nonnull align 8 dereferenceable(40) %22, ptr noundef @.str.3, ptr noundef nonnull align 8 dereferenceable(40) %11)
          to label %23 unwind label %41

23:                                               ; preds = %20
  %24 = invoke noundef i32 @_ZNK4Json5Value5asIntEv(ptr noundef nonnull align 8 dereferenceable(40) %10)
          to label %25 unwind label %45

25:                                               ; preds = %23
  %26 = getelementptr inbounds nuw %"class.open3d::camera::PinholeCameraIntrinsic", ptr %12, i32 0, i32 2
  store i32 %24, ptr %26, align 4, !tbaa !19
  call void @_ZN4Json5ValueD1Ev(ptr noundef nonnull align 8 dereferenceable(40) %10) #14
  call void @_ZN4Json5ValueD1Ev(ptr noundef nonnull align 8 dereferenceable(40) %11) #14
  call void @llvm.lifetime.end.p0(i64 40, ptr %11) #14
  call void @llvm.lifetime.end.p0(i64 40, ptr %10) #14
  %27 = getelementptr inbounds nuw %"class.open3d::camera::PinholeCameraIntrinsic", ptr %12, i32 0, i32 3
  %28 = load ptr, ptr %5, align 8, !tbaa !9
  %29 = call noundef nonnull align 8 dereferenceable(40) ptr @_ZNK4Json5ValueixEPKc(ptr noundef nonnull align 8 dereferenceable(40) %28, ptr noundef @.str.4)
  %30 = call noundef zeroext i1 @_ZN6open3d7utility16IJsonConvertible26EigenMatrix3dFromJsonArrayERN5Eigen6MatrixIdLi3ELi3ELi0ELi3ELi3EEERKN4Json5ValueE(ptr noundef nonnull align 8 dereferenceable(72) %27, ptr noundef nonnull align 8 dereferenceable(40) %29)
  br i1 %30, label %50, label %31

31:                                               ; preds = %25
  call void @_ZN6open3d7utility6Logger11LogWarning_IJEEEvPKciS4_S4_DpOT_(ptr noundef @.str.5, i32 noundef 67, ptr noundef @__PRETTY_FUNCTION__._ZN6open3d6camera22PinholeCameraIntrinsic20ConvertFromJsonValueERKN4Json5ValueE, ptr noundef @.str.7)
  store i1 false, ptr %3, align 1
  br label %51

32:                                               ; preds = %16
  %33 = landingpad { ptr, i32 }
          cleanup
  %34 = extractvalue { ptr, i32 } %33, 0
  store ptr %34, ptr %8, align 8
  %35 = extractvalue { ptr, i32 } %33, 1
  store i32 %35, ptr %9, align 4
  br label %40

36:                                               ; preds = %18
  %37 = landingpad { ptr, i32 }
          cleanup
  %38 = extractvalue { ptr, i32 } %37, 0
  store ptr %38, ptr %8, align 8
  %39 = extractvalue { ptr, i32 } %37, 1
  store i32 %39, ptr %9, align 4
  call void @_ZN4Json5ValueD1Ev(ptr noundef nonnull align 8 dereferenceable(40) %6) #14
  br label %40

40:                                               ; preds = %36, %32
  call void @_ZN4Json5ValueD1Ev(ptr noundef nonnull align 8 dereferenceable(40) %7) #14
  call void @llvm.lifetime.end.p0(i64 40, ptr %7) #14
  call void @llvm.lifetime.end.p0(i64 40, ptr %6) #14
  br label %53

41:                                               ; preds = %20
  %42 = landingpad { ptr, i32 }
          cleanup
  %43 = extractvalue { ptr, i32 } %42, 0
  store ptr %43, ptr %8, align 8
  %44 = extractvalue { ptr, i32 } %42, 1
  store i32 %44, ptr %9, align 4
  br label %49

45:                                               ; preds = %23
  %46 = landingpad { ptr, i32 }
          cleanup
  %47 = extractvalue { ptr, i32 } %46, 0
  store ptr %47, ptr %8, align 8
  %48 = extractvalue { ptr, i32 } %46, 1
  store i32 %48, ptr %9, align 4
  call void @_ZN4Json5ValueD1Ev(ptr noundef nonnull align 8 dereferenceable(40) %10) #14
  br label %49

49:                                               ; preds = %45, %41
  call void @_ZN4Json5ValueD1Ev(ptr noundef nonnull align 8 dereferenceable(40) %11) #14
  call void @llvm.lifetime.end.p0(i64 40, ptr %11) #14
  call void @llvm.lifetime.end.p0(i64 40, ptr %10) #14
  br label %53

50:                                               ; preds = %25
  store i1 true, ptr %3, align 1
  br label %51

51:                                               ; preds = %50, %31, %15
  %52 = load i1, ptr %3, align 1
  ret i1 %52

53:                                               ; preds = %49, %40
  %54 = load ptr, ptr %8, align 8
  %55 = load i32, ptr %9, align 4
  %56 = insertvalue { ptr, i32 } poison, ptr %54, 0
  %57 = insertvalue { ptr, i32 } %56, i32 %55, 1
  resume { ptr, i32 } %57
}