; Function Attrs: mustprogress ssp uwtable
define noundef zeroext i1 @_ZN6open3d6camera22PinholeCameraIntrinsic20ConvertFromJsonValueERKN4Json5ValueE(ptr noundef nonnull align 8 dereferenceable(88) %0, ptr noundef nonnull align 8 dereferenceable(40) %1) unnamed_addr #1 align 2 personality ptr @__gxx_personality_v0 {
  %3 = alloca %"class.Json::Value", align 8
  %4 = alloca %"class.Json::Value", align 8
  %5 = alloca %"class.Json::Value", align 8
  %6 = alloca %"class.Json::Value", align 8
  %7 = tail call noundef zeroext i1 @_ZNK4Json5Value8isObjectEv(ptr noundef nonnull align 8 dereferenceable(40) %1)
  br i1 %7, label %9, label %8

8:                                                ; preds = %2
  tail call void @_ZN6open3d7utility6Logger11LogWarning_IJEEEvPKciS4_S4_DpOT_(ptr noundef nonnull @.str.5, i32 noundef 59, ptr noundef nonnull @__PRETTY_FUNCTION__._ZN6open3d6camera22PinholeCameraIntrinsic20ConvertFromJsonValueERKN4Json5ValueE, ptr noundef nonnull @.str.6)
  br label %32

9:                                                ; preds = %2
  call void @llvm.lifetime.start.p0(i64 40, ptr nonnull %3) #15
  call void @llvm.lifetime.start.p0(i64 40, ptr nonnull %4) #15
  call void @_ZN4Json5ValueC1Ei(ptr noundef nonnull align 8 dereferenceable(40) %4, i32 noundef -1)
  invoke void @_ZNK4Json5Value3getEPKcRKS0_(ptr dead_on_unwind nonnull writable sret(%"class.Json::Value") align 8 %3, ptr noundef nonnull align 8 dereferenceable(40) %1, ptr noundef nonnull @.str, ptr noundef nonnull align 8 dereferenceable(40) %4)
          to label %10 unwind label %22

10:                                               ; preds = %9
  %11 = invoke noundef i32 @_ZNK4Json5Value5asIntEv(ptr noundef nonnull align 8 dereferenceable(40) %3)
          to label %12 unwind label %24

12:                                               ; preds = %10
  %13 = getelementptr inbounds nuw i8, ptr %0, i64 8
  store i32 %11, ptr %13, align 8, !tbaa !4
  call void @_ZN4Json5ValueD1Ev(ptr noundef nonnull align 8 dereferenceable(40) %3) #15
  call void @_ZN4Json5ValueD1Ev(ptr noundef nonnull align 8 dereferenceable(40) %4) #15
  call void @llvm.lifetime.end.p0(i64 40, ptr nonnull %4) #15
  call void @llvm.lifetime.end.p0(i64 40, ptr nonnull %3) #15
  call void @llvm.lifetime.start.p0(i64 40, ptr nonnull %5) #15
  call void @llvm.lifetime.start.p0(i64 40, ptr nonnull %6) #15
  call void @_ZN4Json5ValueC1Ei(ptr noundef nonnull align 8 dereferenceable(40) %6, i32 noundef -1)
  invoke void @_ZNK4Json5Value3getEPKcRKS0_(ptr dead_on_unwind nonnull writable sret(%"class.Json::Value") align 8 %5, ptr noundef nonnull align 8 dereferenceable(40) %1, ptr noundef nonnull @.str.3, ptr noundef nonnull align 8 dereferenceable(40) %6)
          to label %14 unwind label %27

14:                                               ; preds = %12
  %15 = invoke noundef i32 @_ZNK4Json5Value5asIntEv(ptr noundef nonnull align 8 dereferenceable(40) %5)
          to label %16 unwind label %29

16:                                               ; preds = %14
  %17 = getelementptr inbounds nuw i8, ptr %0, i64 12
  store i32 %15, ptr %17, align 4, !tbaa !14
  call void @_ZN4Json5ValueD1Ev(ptr noundef nonnull align 8 dereferenceable(40) %5) #15
  call void @_ZN4Json5ValueD1Ev(ptr noundef nonnull align 8 dereferenceable(40) %6) #15
  call void @llvm.lifetime.end.p0(i64 40, ptr nonnull %6) #15
  call void @llvm.lifetime.end.p0(i64 40, ptr nonnull %5) #15
  %18 = getelementptr inbounds nuw i8, ptr %0, i64 16
  %19 = call noundef nonnull align 8 dereferenceable(40) ptr @_ZNK4Json5ValueixEPKc(ptr noundef nonnull align 8 dereferenceable(40) %1, ptr noundef nonnull @.str.4)
  %20 = call noundef zeroext i1 @_ZN6open3d7utility16IJsonConvertible26EigenMatrix3dFromJsonArrayERN5Eigen6MatrixIdLi3ELi3ELi0ELi3ELi3EEERKN4Json5ValueE(ptr noundef nonnull align 8 dereferenceable(72) %18, ptr noundef nonnull align 8 dereferenceable(40) %19)
  br i1 %20, label %32, label %21

21:                                               ; preds = %16
  call void @_ZN6open3d7utility6Logger11LogWarning_IJEEEvPKciS4_S4_DpOT_(ptr noundef nonnull @.str.5, i32 noundef 67, ptr noundef nonnull @__PRETTY_FUNCTION__._ZN6open3d6camera22PinholeCameraIntrinsic20ConvertFromJsonValueERKN4Json5ValueE, ptr noundef nonnull @.str.7)
  br label %32

22:                                               ; preds = %9
  %23 = landingpad { ptr, i32 }
          cleanup
  br label %26

24:                                               ; preds = %10
  %25 = landingpad { ptr, i32 }
          cleanup
  call void @_ZN4Json5ValueD1Ev(ptr noundef nonnull align 8 dereferenceable(40) %3) #15
  br label %26

26:                                               ; preds = %24, %22
  %.pn = phi { ptr, i32 } [ %25, %24 ], [ %23, %22 ]
  call void @_ZN4Json5ValueD1Ev(ptr noundef nonnull align 8 dereferenceable(40) %4) #15
  call void @llvm.lifetime.end.p0(i64 40, ptr nonnull %4) #15
  call void @llvm.lifetime.end.p0(i64 40, ptr nonnull %3) #15
  br label %33

27:                                               ; preds = %12
  %28 = landingpad { ptr, i32 }
          cleanup
  br label %31

29:                                               ; preds = %14
  %30 = landingpad { ptr, i32 }
          cleanup
  call void @_ZN4Json5ValueD1Ev(ptr noundef nonnull align 8 dereferenceable(40) %5) #15
  br label %31

31:                                               ; preds = %29, %27
  %.pn12 = phi { ptr, i32 } [ %30, %29 ], [ %28, %27 ]
  call void @_ZN4Json5ValueD1Ev(ptr noundef nonnull align 8 dereferenceable(40) %6) #15
  call void @llvm.lifetime.end.p0(i64 40, ptr nonnull %6) #15
  call void @llvm.lifetime.end.p0(i64 40, ptr nonnull %5) #15
  br label %33

32:                                               ; preds = %16, %21, %8
  %.010 = phi i1 [ false, %21 ], [ false, %8 ], [ true, %16 ]
  ret i1 %.010

33:                                               ; preds = %31, %26
  %.pn12.pn = phi { ptr, i32 } [ %.pn12, %31 ], [ %.pn, %26 ]
  resume { ptr, i32 } %.pn12.pn
}